target datalayout = "e-m:e-p270:32:32-p271:32:32-p272:64:64-i64:64-i128:128-f80:128-n8:16:32:64-S128"
target triple = "x86_64-pc-linux-gnu"

%"class.ade::MemoryDescriptor" = type { i64, %"struct.ade::util::DynMdSize", %"struct.ade::util::DynMdView", %"class.ade::MemoryAccessor" }
%"struct.ade::util::DynMdSize" = type { %"struct.std::array", i64 }
%"struct.std::array" = type { [6 x i32] }
%"struct.ade::util::DynMdView" = type { %"struct.std::array.0", i64, %"struct.ade::util::MemoryRange" }
%"struct.std::array.0" = type { [6 x %"struct.ade::util::SliceDimension"] }
%"struct.ade::util::SliceDimension" = type { i32, i32 }
%"struct.ade::util::MemoryRange" = type { ptr, i64 }
%"class.ade::MemoryAccessor" = type { %"class.std::vector", %"struct.ade::util::DynMdView", %"class.std::__cxx11::list", %"class.std::function" }
%"class.std::vector" = type { %"struct.std::_Vector_base" }
%"struct.std::_Vector_base" = type { %"struct.std::_Vector_base<ade::IMemoryAccessListener *, std::allocator<ade::IMemoryAccessListener *>>::_Vector_impl" }
%"struct.std::_Vector_base<ade::IMemoryAccessListener *, std::allocator<ade::IMemoryAccessListener *>>::_Vector_impl" = type { %"struct.std::_Vector_base<ade::IMemoryAccessListener *, std::allocator<ade::IMemoryAccessListener *>>::_Vector_impl_data" }
%"struct.std::_Vector_base<ade::IMemoryAccessListener *, std::allocator<ade::IMemoryAccessListener *>>::_Vector_impl_data" = type { ptr, ptr, ptr }
%"class.std::__cxx11::list" = type { %"class.std::__cxx11::_List_base" }
%"class.std::__cxx11::_List_base" = type { %"struct.std::__cxx11::_List_base<ade::MemoryAccessor::SavedHandles, std::allocator<ade::MemoryAccessor::SavedHandles>>::_List_impl" }
%"struct.std::__cxx11::_List_base<ade::MemoryAccessor::SavedHandles, std::allocator<ade::MemoryAccessor::SavedHandles>>::_List_impl" = type { %"struct.std::__detail::_List_node_header" }
%"struct.std::__detail::_List_node_header" = type { %"struct.std::__detail::_List_node_base", i64 }
%"struct.std::__detail::_List_node_base" = type { ptr, ptr }
%"class.std::function" = type { %"class.std::_Function_base", ptr }
%"class.std::_Function_base" = type { %"union.std::_Any_data", ptr }
%"union.std::_Any_data" = type { %"union.std::_Nocopy_types" }
%"union.std::_Nocopy_types" = type { { i64, i64 } }

; Function Attrs: inlinehint mustprogress nounwind uwtable
define linkonce_odr hidden void @_ZN3ade4util14SliceDimensionC2Ev(ptr noundef nonnull align 4 dereferenceable(8) %0) unnamed_addr #6 comdat align 2 {
  %2 = alloca ptr, align 8
  store ptr %0, ptr %2, align 8, !tbaa !57
  %3 = load ptr, ptr %2, align 8
  %4 = getelementptr inbounds nuw %"struct.ade::util::SliceDimension", ptr %3, i32 0, i32 0
  store i32 0, ptr %4, align 4, !tbaa !59
  %5 = getelementptr inbounds nuw %"struct.ade::util::SliceDimension", ptr %3, i32 0, i32 1
  store i32 0, ptr %5, align 4, !tbaa !62
  ret void
}

; Function Attrs: mustprogress nounwind uwtable
define linkonce_odr hidden void @_ZN3ade4util11MemoryRangeIvEC2Ev(ptr noundef nonnull align 8 dereferenceable(16) %0) unnamed_addr #2 comdat align 2 {
  %2 = alloca ptr, align 8
  store ptr %0, ptr %2, align 8, !tbaa !53
  %3 = load ptr, ptr %2, align 8
  %4 = getelementptr inbounds nuw %"struct.ade::util::MemoryRange", ptr %3, i32 0, i32 0
  store ptr null, ptr %4, align 8, !tbaa !55
  %5 = getelementptr inbounds nuw %"struct.ade::util::MemoryRange", ptr %3, i32 0, i32 1
  store i64 0, ptr %5, align 8, !tbaa !56
  ret void
}

; Function Attrs: inlinehint mustprogress nounwind uwtable
define linkonce_odr hidden void @_ZNSt5arrayIN3ade4util14SliceDimensionELm6EEC2Ev(ptr noundef nonnull align 4 dereferenceable(48) %0) unnamed_addr #6 comdat align 2 {
  %2 = alloca ptr, align 8
  store ptr %0, ptr %2, align 8, !tbaa !51
  %3 = load ptr, ptr %2, align 8
  %4 = getelementptr inbounds nuw %"struct.std::array.0", ptr %3, i32 0, i32 0
  %5 = getelementptr inbounds [6 x %"struct.ade::util::SliceDimension"], ptr %4, i32 0, i32 0
  %6 = getelementptr inbounds %"struct.ade::util::SliceDimension", ptr %5, i64 6
  br label %7

7:                                                ; preds = %7, %1
  %8 = phi ptr [ %5, %1 ], [ %9, %7 ]
  call void @_ZN3ade4util14SliceDimensionC2Ev(ptr noundef nonnull align 4 dereferenceable(8) %8) #7
  %9 = getelementptr inbounds %"struct.ade::util::SliceDimension", ptr %8, i64 1
  %10 = icmp eq ptr %9, %6
  br i1 %10, label %11, label %7

11:                                               ; preds = %7
  ret void
}

; Function Attrs: mustprogress nounwind uwtable
define linkonce_odr hidden void @_ZN3ade4util9DynMdViewILm6EvEC2Ev(ptr noundef nonnull align 8 dereferenceable(72) %0) unnamed_addr #2 comdat align 2 {
  %2 = alloca ptr, align 8
  store ptr %0, ptr %2, align 8, !tbaa !38
  %3 = load ptr, ptr %2, align 8
  %4 = getelementptr inbounds nuw %"struct.ade::util::DynMdView", ptr %3, i32 0, i32 0
  call void @_ZNSt5arrayIN3ade4util14SliceDimensionELm6EEC2Ev(ptr noundef nonnull align 4 dereferenceable(48) %4) #7
  %5 = getelementptr inbounds nuw %"struct.ade::util::DynMdView", ptr %3, i32 0, i32 1
  store i64 0, ptr %5, align 8, !tbaa !40
  %6 = getelementptr inbounds nuw %"struct.ade::util::DynMdView", ptr %3, i32 0, i32 2
  call void @_ZN3ade4util11MemoryRangeIvEC2Ev(ptr noundef nonnull align 8 dereferenceable(16) %6) #7
  ret void
}

; Function Attrs: mustprogress uwtable
define hidden void @_ZN3ade16MemoryDescriptorC2EmRKNS_4util9DynMdSizeILm6EEE(ptr noundef nonnull align 8 dereferenceable(264) %0, i64 noundef %1, ptr noundef nonnull align 8 dereferenceable(32) %2) unnamed_addr #0 align 2 {
  %4 = alloca ptr, align 8
  %5 = alloca i64, align 8
  %6 = alloca ptr, align 8
  %7 = alloca i8, align 1
  %8 = alloca i8, align 1
  store ptr %0, ptr %4, align 8, !tbaa !3
  store i64 %1, ptr %5, align 8, !tbaa !8
  store ptr %2, ptr %6, align 8, !tbaa !10
  %9 = load ptr, ptr %4, align 8
  %10 = getelementptr inbounds nuw %"class.ade::MemoryDescriptor", ptr %9, i32 0, i32 0
  %11 = load i64, ptr %5, align 8, !tbaa !8
  store i64 %11, ptr %10, align 8, !tbaa !12
  %12 = getelementptr inbounds nuw %"class.ade::MemoryDescriptor", ptr %9, i32 0, i32 1
  %13 = load ptr, ptr %6, align 8, !tbaa !10
  call void @llvm.memcpy.p0.p0.i64(ptr align 8 %12, ptr align 8 %13, i64 32, i1 false), !tbaa.struct !34
  %14 = getelementptr inbounds nuw %"class.ade::MemoryDescriptor", ptr %9, i32 0, i32 2
  call void @_ZN3ade4util9DynMdViewILm6EvEC2Ev(ptr noundef nonnull align 8 dereferenceable(72) %14) #7
  %15 = getelementptr inbounds nuw %"class.ade::MemoryDescriptor", ptr %9, i32 0, i32 3
  call void @_ZN3ade14MemoryAccessorC1Ev(ptr noundef nonnull align 8 dereferenceable(152) %15)
  br label %16

16:                                               ; preds = %3
  call void @llvm.lifetime.start.p0(i64 1, ptr %7) #7
  store i8 0, ptr %7, align 1, !tbaa !36
  call void @llvm.lifetime.end.p0(i64 1, ptr %7) #7
  br label %17

17:                                               ; preds = %16
  br label %18

18:                                               ; preds = %17
  br label %19

19:                                               ; preds = %18
  call void @llvm.lifetime.start.p0(i64 1, ptr %8) #7
  store i8 0, ptr %8, align 1, !tbaa !36
  call void @llvm.lifetime.end.p0(i64 1, ptr %8) #7
  br label %20

20:                                               ; preds = %19
  br label %21

21:                                               ; preds = %20
  ret void
}