; Function Attrs: mustprogress uwtable
define hidden void @_ZN3ade16MemoryDescriptorC2EmRKNS_4util9DynMdSizeILm6EEE(ptr noundef nonnull align 8 dereferenceable(264) initializes((0, 112)) %0, i64 noundef %1, ptr noundef nonnull readonly align 8 captures(none) dereferenceable(32) %2) unnamed_addr #0 align 2 {
  store i64 %1, ptr %0, align 8, !tbaa !3
  %4 = getelementptr inbounds nuw i8, ptr %0, i64 8
  tail call void @llvm.memcpy.p0.p0.i64(ptr noundef nonnull align 8 dereferenceable(32) %4, ptr noundef nonnull align 8 dereferenceable(32) %2, i64 32, i1 false), !tbaa.struct !29
  %5 = getelementptr inbounds nuw i8, ptr %0, i64 40
  tail call void @llvm.memset.p0.i64(ptr noundef nonnull align 8 dereferenceable(72) %5, i8 0, i64 72, i1 false)
  %6 = getelementptr inbounds nuw i8, ptr %0, i64 112
  tail call void @_ZN3ade14MemoryAccessorC1Ev(ptr noundef nonnull align 8 dereferenceable(152) %6)
  ret void
}